(lp0
(lp1
S'5.1'
p2
aS'3.5'
p3
aS'1.4'
p4
aS'0.2'
p5
a(lp6
I1
aI0
aI0
aaa(lp7
S'4.9'
p8
aS'3.0'
p9
aS'1.4'
p10
aS'0.2'
p11
a(lp12
I1
aI0
aI0
aaa(lp13
S'4.7'
p14
aS'3.2'
p15
aS'1.3'
p16
aS'0.2'
p17
a(lp18
I1
aI0
aI0
aaa(lp19
S'4.6'
p20
aS'3.1'
p21
aS'1.5'
p22
aS'0.2'
p23
a(lp24
I1
aI0
aI0
aaa(lp25
S'5.0'
p26
aS'3.6'
p27
aS'1.4'
p28
aS'0.2'
p29
a(lp30
I1
aI0
aI0
aaa(lp31
S'5.4'
p32
aS'3.9'
p33
aS'1.7'
p34
aS'0.4'
p35
a(lp36
I1
aI0
aI0
aaa(lp37
S'4.6'
p38
aS'3.4'
p39
aS'1.4'
p40
aS'0.3'
p41
a(lp42
I1
aI0
aI0
aaa(lp43
S'5.0'
p44
aS'3.4'
p45
aS'1.5'
p46
aS'0.2'
p47
a(lp48
I1
aI0
aI0
aaa(lp49
S'4.4'
p50
aS'2.9'
p51
aS'1.4'
p52
aS'0.2'
p53
a(lp54
I1
aI0
aI0
aaa(lp55
S'4.9'
p56
aS'3.1'
p57
aS'1.5'
p58
aS'0.1'
p59
a(lp60
I1
aI0
aI0
aaa(lp61
S'5.4'
p62
aS'3.7'
p63
aS'1.5'
p64
aS'0.2'
p65
a(lp66
I1
aI0
aI0
aaa(lp67
S'4.8'
p68
aS'3.4'
p69
aS'1.6'
p70
aS'0.2'
p71
a(lp72
I1
aI0
aI0
aaa(lp73
S'4.8'
p74
aS'3.0'
p75
aS'1.4'
p76
aS'0.1'
p77
a(lp78
I1
aI0
aI0
aaa(lp79
S'4.3'
p80
aS'3.0'
p81
aS'1.1'
p82
aS'0.1'
p83
a(lp84
I1
aI0
aI0
aaa(lp85
S'5.8'
p86
aS'4.0'
p87
aS'1.2'
p88
aS'0.2'
p89
a(lp90
I1
aI0
aI0
aaa(lp91
S'5.7'
p92
aS'4.4'
p93
aS'1.5'
p94
aS'0.4'
p95
a(lp96
I1
aI0
aI0
aaa(lp97
S'5.4'
p98
aS'3.9'
p99
aS'1.3'
p100
aS'0.4'
p101
a(lp102
I1
aI0
aI0
aaa(lp103
S'5.1'
p104
aS'3.5'
p105
aS'1.4'
p106
aS'0.3'
p107
a(lp108
I1
aI0
aI0
aaa(lp109
S'5.7'
p110
aS'3.8'
p111
aS'1.7'
p112
aS'0.3'
p113
a(lp114
I1
aI0
aI0
aaa(lp115
S'5.1'
p116
aS'3.8'
p117
aS'1.5'
p118
aS'0.3'
p119
a(lp120
I1
aI0
aI0
aaa(lp121
S'5.4'
p122
aS'3.4'
p123
aS'1.7'
p124
aS'0.2'
p125
a(lp126
I1
aI0
aI0
aaa(lp127
S'5.1'
p128
aS'3.7'
p129
aS'1.5'
p130
aS'0.4'
p131
a(lp132
I1
aI0
aI0
aaa(lp133
S'4.6'
p134
aS'3.6'
p135
aS'1.0'
p136
aS'0.2'
p137
a(lp138
I1
aI0
aI0
aaa(lp139
S'5.1'
p140
aS'3.3'
p141
aS'1.7'
p142
aS'0.5'
p143
a(lp144
I1
aI0
aI0
aaa(lp145
S'4.8'
p146
aS'3.4'
p147
aS'1.9'
p148
aS'0.2'
p149
a(lp150
I1
aI0
aI0
aaa(lp151
S'5.0'
p152
aS'3.0'
p153
aS'1.6'
p154
aS'0.2'
p155
a(lp156
I1
aI0
aI0
aaa(lp157
S'5.0'
p158
aS'3.4'
p159
aS'1.6'
p160
aS'0.4'
p161
a(lp162
I1
aI0
aI0
aaa(lp163
S'5.2'
p164
aS'3.5'
p165
aS'1.5'
p166
aS'0.2'
p167
a(lp168
I1
aI0
aI0
aaa(lp169
S'5.2'
p170
aS'3.4'
p171
aS'1.4'
p172
aS'0.2'
p173
a(lp174
I1
aI0
aI0
aaa(lp175
S'4.7'
p176
aS'3.2'
p177
aS'1.6'
p178
aS'0.2'
p179
a(lp180
I1
aI0
aI0
aaa(lp181
S'4.8'
p182
aS'3.1'
p183
aS'1.6'
p184
aS'0.2'
p185
a(lp186
I1
aI0
aI0
aaa(lp187
S'5.4'
p188
aS'3.4'
p189
aS'1.5'
p190
aS'0.4'
p191
a(lp192
I1
aI0
aI0
aaa(lp193
S'5.2'
p194
aS'4.1'
p195
aS'1.5'
p196
aS'0.1'
p197
a(lp198
I1
aI0
aI0
aaa(lp199
S'5.5'
p200
aS'4.2'
p201
aS'1.4'
p202
aS'0.2'
p203
a(lp204
I1
aI0
aI0
aaa(lp205
S'4.9'
p206
aS'3.1'
p207
aS'1.5'
p208
aS'0.1'
p209
a(lp210
I1
aI0
aI0
aaa(lp211
S'5.0'
p212
aS'3.2'
p213
aS'1.2'
p214
aS'0.2'
p215
a(lp216
I1
aI0
aI0
aaa(lp217
S'5.5'
p218
aS'3.5'
p219
aS'1.3'
p220
aS'0.2'
p221
a(lp222
I1
aI0
aI0
aaa(lp223
S'4.9'
p224
aS'3.1'
p225
aS'1.5'
p226
aS'0.1'
p227
a(lp228
I1
aI0
aI0
aaa(lp229
S'4.4'
p230
aS'3.0'
p231
aS'1.3'
p232
aS'0.2'
p233
a(lp234
I1
aI0
aI0
aaa(lp235
S'5.1'
p236
aS'3.4'
p237
aS'1.5'
p238
aS'0.2'
p239
a(lp240
I1
aI0
aI0
aaa(lp241
S'5.0'
p242
aS'3.5'
p243
aS'1.3'
p244
aS'0.3'
p245
a(lp246
I1
aI0
aI0
aaa(lp247
S'4.5'
p248
aS'2.3'
p249
aS'1.3'
p250
aS'0.3'
p251
a(lp252
I1
aI0
aI0
aaa(lp253
S'4.4'
p254
aS'3.2'
p255
aS'1.3'
p256
aS'0.2'
p257
a(lp258
I1
aI0
aI0
aaa(lp259
S'5.0'
p260
aS'3.5'
p261
aS'1.6'
p262
aS'0.6'
p263
a(lp264
I1
aI0
aI0
aaa(lp265
S'5.1'
p266
aS'3.8'
p267
aS'1.9'
p268
aS'0.4'
p269
a(lp270
I1
aI0
aI0
aaa(lp271
S'4.8'
p272
aS'3.0'
p273
aS'1.4'
p274
aS'0.3'
p275
a(lp276
I1
aI0
aI0
aaa(lp277
S'5.1'
p278
aS'3.8'
p279
aS'1.6'
p280
aS'0.2'
p281
a(lp282
I1
aI0
aI0
aaa(lp283
S'4.6'
p284
aS'3.2'
p285
aS'1.4'
p286
aS'0.2'
p287
a(lp288
I1
aI0
aI0
aaa(lp289
S'5.3'
p290
aS'3.7'
p291
aS'1.5'
p292
aS'0.2'
p293
a(lp294
I1
aI0
aI0
aaa(lp295
S'5.0'
p296
aS'3.3'
p297
aS'1.4'
p298
aS'0.2'
p299
a(lp300
I1
aI0
aI0
aaa(lp301
S'7.0'
p302
aS'3.2'
p303
aS'4.7'
p304
aS'1.4'
p305
a(lp306
I0
aI1
aI0
aaa(lp307
S'6.4'
p308
aS'3.2'
p309
aS'4.5'
p310
aS'1.5'
p311
a(lp312
I0
aI1
aI0
aaa(lp313
S'6.9'
p314
aS'3.1'
p315
aS'4.9'
p316
aS'1.5'
p317
a(lp318
I0
aI1
aI0
aaa(lp319
S'5.5'
p320
aS'2.3'
p321
aS'4.0'
p322
aS'1.3'
p323
a(lp324
I0
aI1
aI0
aaa(lp325
S'6.5'
p326
aS'2.8'
p327
aS'4.6'
p328
aS'1.5'
p329
a(lp330
I0
aI1
aI0
aaa(lp331
S'5.7'
p332
aS'2.8'
p333
aS'4.5'
p334
aS'1.3'
p335
a(lp336
I0
aI1
aI0
aaa(lp337
S'6.3'
p338
aS'3.3'
p339
aS'4.7'
p340
aS'1.6'
p341
a(lp342
I0
aI1
aI0
aaa(lp343
S'4.9'
p344
aS'2.4'
p345
aS'3.3'
p346
aS'1.0'
p347
a(lp348
I0
aI1
aI0
aaa(lp349
S'6.6'
p350
aS'2.9'
p351
aS'4.6'
p352
aS'1.3'
p353
a(lp354
I0
aI1
aI0
aaa(lp355
S'5.2'
p356
aS'2.7'
p357
aS'3.9'
p358
aS'1.4'
p359
a(lp360
I0
aI1
aI0
aaa(lp361
S'5.0'
p362
aS'2.0'
p363
aS'3.5'
p364
aS'1.0'
p365
a(lp366
I0
aI1
aI0
aaa(lp367
S'5.9'
p368
aS'3.0'
p369
aS'4.2'
p370
aS'1.5'
p371
a(lp372
I0
aI1
aI0
aaa(lp373
S'6.0'
p374
aS'2.2'
p375
aS'4.0'
p376
aS'1.0'
p377
a(lp378
I0
aI1
aI0
aaa(lp379
S'6.1'
p380
aS'2.9'
p381
aS'4.7'
p382
aS'1.4'
p383
a(lp384
I0
aI1
aI0
aaa(lp385
S'5.6'
p386
aS'2.9'
p387
aS'3.6'
p388
aS'1.3'
p389
a(lp390
I0
aI1
aI0
aaa(lp391
S'6.7'
p392
aS'3.1'
p393
aS'4.4'
p394
aS'1.4'
p395
a(lp396
I0
aI1
aI0
aaa(lp397
S'5.6'
p398
aS'3.0'
p399
aS'4.5'
p400
aS'1.5'
p401
a(lp402
I0
aI1
aI0
aaa(lp403
S'5.8'
p404
aS'2.7'
p405
aS'4.1'
p406
aS'1.0'
p407
a(lp408
I0
aI1
aI0
aaa(lp409
S'6.2'
p410
aS'2.2'
p411
aS'4.5'
p412
aS'1.5'
p413
a(lp414
I0
aI1
aI0
aaa(lp415
S'5.6'
p416
aS'2.5'
p417
aS'3.9'
p418
aS'1.1'
p419
a(lp420
I0
aI1
aI0
aaa(lp421
S'5.9'
p422
aS'3.2'
p423
aS'4.8'
p424
aS'1.8'
p425
a(lp426
I0
aI1
aI0
aaa(lp427
S'6.1'
p428
aS'2.8'
p429
aS'4.0'
p430
aS'1.3'
p431
a(lp432
I0
aI1
aI0
aaa(lp433
S'6.3'
p434
aS'2.5'
p435
aS'4.9'
p436
aS'1.5'
p437
a(lp438
I0
aI1
aI0
aaa(lp439
S'6.1'
p440
aS'2.8'
p441
aS'4.7'
p442
aS'1.2'
p443
a(lp444
I0
aI1
aI0
aaa(lp445
S'6.4'
p446
aS'2.9'
p447
aS'4.3'
p448
aS'1.3'
p449
a(lp450
I0
aI1
aI0
aaa(lp451
S'6.6'
p452
aS'3.0'
p453
aS'4.4'
p454
aS'1.4'
p455
a(lp456
I0
aI1
aI0
aaa(lp457
S'6.8'
p458
aS'2.8'
p459
aS'4.8'
p460
aS'1.4'
p461
a(lp462
I0
aI1
aI0
aaa(lp463
S'6.7'
p464
aS'3.0'
p465
aS'5.0'
p466
aS'1.7'
p467
a(lp468
I0
aI1
aI0
aaa(lp469
S'6.0'
p470
aS'2.9'
p471
aS'4.5'
p472
aS'1.5'
p473
a(lp474
I0
aI1
aI0
aaa(lp475
S'5.7'
p476
aS'2.6'
p477
aS'3.5'
p478
aS'1.0'
p479
a(lp480
I0
aI1
aI0
aaa(lp481
S'5.5'
p482
aS'2.4'
p483
aS'3.8'
p484
aS'1.1'
p485
a(lp486
I0
aI1
aI0
aaa(lp487
S'5.5'
p488
aS'2.4'
p489
aS'3.7'
p490
aS'1.0'
p491
a(lp492
I0
aI1
aI0
aaa(lp493
S'5.8'
p494
aS'2.7'
p495
aS'3.9'
p496
aS'1.2'
p497
a(lp498
I0
aI1
aI0
aaa(lp499
S'6.0'
p500
aS'2.7'
p501
aS'5.1'
p502
aS'1.6'
p503
a(lp504
I0
aI1
aI0
aaa(lp505
S'5.4'
p506
aS'3.0'
p507
aS'4.5'
p508
aS'1.5'
p509
a(lp510
I0
aI1
aI0
aaa(lp511
S'6.0'
p512
aS'3.4'
p513
aS'4.5'
p514
aS'1.6'
p515
a(lp516
I0
aI1
aI0
aaa(lp517
S'6.7'
p518
aS'3.1'
p519
aS'4.7'
p520
aS'1.5'
p521
a(lp522
I0
aI1
aI0
aaa(lp523
S'6.3'
p524
aS'2.3'
p525
aS'4.4'
p526
aS'1.3'
p527
a(lp528
I0
aI1
aI0
aaa(lp529
S'5.6'
p530
aS'3.0'
p531
aS'4.1'
p532
aS'1.3'
p533
a(lp534
I0
aI1
aI0
aaa(lp535
S'5.5'
p536
aS'2.5'
p537
aS'4.0'
p538
aS'1.3'
p539
a(lp540
I0
aI1
aI0
aaa(lp541
S'5.5'
p542
aS'2.6'
p543
aS'4.4'
p544
aS'1.2'
p545
a(lp546
I0
aI1
aI0
aaa(lp547
S'6.1'
p548
aS'3.0'
p549
aS'4.6'
p550
aS'1.4'
p551
a(lp552
I0
aI1
aI0
aaa(lp553
S'5.8'
p554
aS'2.6'
p555
aS'4.0'
p556
aS'1.2'
p557
a(lp558
I0
aI1
aI0
aaa(lp559
S'5.0'
p560
aS'2.3'
p561
aS'3.3'
p562
aS'1.0'
p563
a(lp564
I0
aI1
aI0
aaa(lp565
S'5.6'
p566
aS'2.7'
p567
aS'4.2'
p568
aS'1.3'
p569
a(lp570
I0
aI1
aI0
aaa(lp571
S'5.7'
p572
aS'3.0'
p573
aS'4.2'
p574
aS'1.2'
p575
a(lp576
I0
aI1
aI0
aaa(lp577
S'5.7'
p578
aS'2.9'
p579
aS'4.2'
p580
aS'1.3'
p581
a(lp582
I0
aI1
aI0
aaa(lp583
S'6.2'
p584
aS'2.9'
p585
aS'4.3'
p586
aS'1.3'
p587
a(lp588
I0
aI1
aI0
aaa(lp589
S'5.1'
p590
aS'2.5'
p591
aS'3.0'
p592
aS'1.1'
p593
a(lp594
I0
aI1
aI0
aaa(lp595
S'5.7'
p596
aS'2.8'
p597
aS'4.1'
p598
aS'1.3'
p599
a(lp600
I0
aI1
aI0
aaa(lp601
S'6.3'
p602
aS'3.3'
p603
aS'6.0'
p604
aS'2.5'
p605
a(lp606
I0
aI0
aI1
aaa(lp607
S'5.8'
p608
aS'2.7'
p609
aS'5.1'
p610
aS'1.9'
p611
a(lp612
I0
aI0
aI1
aaa(lp613
S'7.1'
p614
aS'3.0'
p615
aS'5.9'
p616
aS'2.1'
p617
a(lp618
I0
aI0
aI1
aaa(lp619
S'6.3'
p620
aS'2.9'
p621
aS'5.6'
p622
aS'1.8'
p623
a(lp624
I0
aI0
aI1
aaa(lp625
S'6.5'
p626
aS'3.0'
p627
aS'5.8'
p628
aS'2.2'
p629
a(lp630
I0
aI0
aI1
aaa(lp631
S'7.6'
p632
aS'3.0'
p633
aS'6.6'
p634
aS'2.1'
p635
a(lp636
I0
aI0
aI1
aaa(lp637
S'4.9'
p638
aS'2.5'
p639
aS'4.5'
p640
aS'1.7'
p641
a(lp642
I0
aI0
aI1
aaa(lp643
S'7.3'
p644
aS'2.9'
p645
aS'6.3'
p646
aS'1.8'
p647
a(lp648
I0
aI0
aI1
aaa(lp649
S'6.7'
p650
aS'2.5'
p651
aS'5.8'
p652
aS'1.8'
p653
a(lp654
I0
aI0
aI1
aaa(lp655
S'7.2'
p656
aS'3.6'
p657
aS'6.1'
p658
aS'2.5'
p659
a(lp660
I0
aI0
aI1
aaa(lp661
S'6.5'
p662
aS'3.2'
p663
aS'5.1'
p664
aS'2.0'
p665
a(lp666
I0
aI0
aI1
aaa(lp667
S'6.4'
p668
aS'2.7'
p669
aS'5.3'
p670
aS'1.9'
p671
a(lp672
I0
aI0
aI1
aaa(lp673
S'6.8'
p674
aS'3.0'
p675
aS'5.5'
p676
aS'2.1'
p677
a(lp678
I0
aI0
aI1
aaa(lp679
S'5.7'
p680
aS'2.5'
p681
aS'5.0'
p682
aS'2.0'
p683
a(lp684
I0
aI0
aI1
aaa(lp685
S'5.8'
p686
aS'2.8'
p687
aS'5.1'
p688
aS'2.4'
p689
a(lp690
I0
aI0
aI1
aaa(lp691
S'6.4'
p692
aS'3.2'
p693
aS'5.3'
p694
aS'2.3'
p695
a(lp696
I0
aI0
aI1
aaa(lp697
S'6.5'
p698
aS'3.0'
p699
aS'5.5'
p700
aS'1.8'
p701
a(lp702
I0
aI0
aI1
aaa(lp703
S'7.7'
p704
aS'3.8'
p705
aS'6.7'
p706
aS'2.2'
p707
a(lp708
I0
aI0
aI1
aaa(lp709
S'7.7'
p710
aS'2.6'
p711
aS'6.9'
p712
aS'2.3'
p713
a(lp714
I0
aI0
aI1
aaa(lp715
S'6.0'
p716
aS'2.2'
p717
aS'5.0'
p718
aS'1.5'
p719
a(lp720
I0
aI0
aI1
aaa(lp721
S'6.9'
p722
aS'3.2'
p723
aS'5.7'
p724
aS'2.3'
p725
a(lp726
I0
aI0
aI1
aaa(lp727
S'5.6'
p728
aS'2.8'
p729
aS'4.9'
p730
aS'2.0'
p731
a(lp732
I0
aI0
aI1
aaa(lp733
S'7.7'
p734
aS'2.8'
p735
aS'6.7'
p736
aS'2.0'
p737
a(lp738
I0
aI0
aI1
aaa(lp739
S'6.3'
p740
aS'2.7'
p741
aS'4.9'
p742
aS'1.8'
p743
a(lp744
I0
aI0
aI1
aaa(lp745
S'6.7'
p746
aS'3.3'
p747
aS'5.7'
p748
aS'2.1'
p749
a(lp750
I0
aI0
aI1
aaa(lp751
S'7.2'
p752
aS'3.2'
p753
aS'6.0'
p754
aS'1.8'
p755
a(lp756
I0
aI0
aI1
aaa(lp757
S'6.2'
p758
aS'2.8'
p759
aS'4.8'
p760
aS'1.8'
p761
a(lp762
I0
aI0
aI1
aaa(lp763
S'6.1'
p764
aS'3.0'
p765
aS'4.9'
p766
aS'1.8'
p767
a(lp768
I0
aI0
aI1
aaa(lp769
S'6.4'
p770
aS'2.8'
p771
aS'5.6'
p772
aS'2.1'
p773
a(lp774
I0
aI0
aI1
aaa(lp775
S'7.2'
p776
aS'3.0'
p777
aS'5.8'
p778
aS'1.6'
p779
a(lp780
I0
aI0
aI1
aaa(lp781
S'7.4'
p782
aS'2.8'
p783
aS'6.1'
p784
aS'1.9'
p785
a(lp786
I0
aI0
aI1
aaa(lp787
S'7.9'
p788
aS'3.8'
p789
aS'6.4'
p790
aS'2.0'
p791
a(lp792
I0
aI0
aI1
aaa(lp793
S'6.4'
p794
aS'2.8'
p795
aS'5.6'
p796
aS'2.2'
p797
a(lp798
I0
aI0
aI1
aaa(lp799
S'6.3'
p800
aS'2.8'
p801
aS'5.1'
p802
aS'1.5'
p803
a(lp804
I0
aI0
aI1
aaa(lp805
S'6.1'
p806
aS'2.6'
p807
aS'5.6'
p808
aS'1.4'
p809
a(lp810
I0
aI0
aI1
aaa(lp811
S'7.7'
p812
aS'3.0'
p813
aS'6.1'
p814
aS'2.3'
p815
a(lp816
I0
aI0
aI1
aaa(lp817
S'6.3'
p818
aS'3.4'
p819
aS'5.6'
p820
aS'2.4'
p821
a(lp822
I0
aI0
aI1
aaa(lp823
S'6.4'
p824
aS'3.1'
p825
aS'5.5'
p826
aS'1.8'
p827
a(lp828
I0
aI0
aI1
aaa(lp829
S'6.0'
p830
aS'3.0'
p831
aS'4.8'
p832
aS'1.8'
p833
a(lp834
I0
aI0
aI1
aaa(lp835
S'6.9'
p836
aS'3.1'
p837
aS'5.4'
p838
aS'2.1'
p839
a(lp840
I0
aI0
aI1
aaa(lp841
S'6.7'
p842
aS'3.1'
p843
aS'5.6'
p844
aS'2.4'
p845
a(lp846
I0
aI0
aI1
aaa(lp847
S'6.9'
p848
aS'3.1'
p849
aS'5.1'
p850
aS'2.3'
p851
a(lp852
I0
aI0
aI1
aaa(lp853
S'5.8'
p854
aS'2.7'
p855
aS'5.1'
p856
aS'1.9'
p857
a(lp858
I0
aI0
aI1
aaa(lp859
S'6.8'
p860
aS'3.2'
p861
aS'5.9'
p862
aS'2.3'
p863
a(lp864
I0
aI0
aI1
aaa(lp865
S'6.7'
p866
aS'3.3'
p867
aS'5.7'
p868
aS'2.5'
p869
a(lp870
I0
aI0
aI1
aaa(lp871
S'6.7'
p872
aS'3.0'
p873
aS'5.2'
p874
aS'2.3'
p875
a(lp876
I0
aI0
aI1
aaa(lp877
S'6.3'
p878
aS'2.5'
p879
aS'5.0'
p880
aS'1.9'
p881
a(lp882
I0
aI0
aI1
aaa(lp883
S'6.5'
p884
aS'3.0'
p885
aS'5.2'
p886
aS'2.0'
p887
a(lp888
I0
aI0
aI1
aaa(lp889
S'6.2'
p890
aS'3.4'
p891
aS'5.4'
p892
aS'2.3'
p893
a(lp894
I0
aI0
aI1
aaa(lp895
S'5.9'
p896
aS'3.0'
p897
aS'5.1'
p898
aS'1.8'
p899
a(lp900
I0
aI0
aI1
aaa.